; Function Attrs: mustprogress nofree norecurse nosync nounwind willreturn memory(argmem: readwrite) uwtable
define internal void @hor_up_4x4_c(ptr noundef writeonly captures(none) initializes((0, 8)) %0, i64 noundef %1, ptr noundef readonly captures(none) %2, ptr readnone captures(none) %3) #1 {
  %5 = load i16, ptr %2, align 2, !tbaa !9
  %6 = zext i16 %5 to i32
  %7 = getelementptr inbounds nuw i8, ptr %2, i64 2
  %8 = load i16, ptr %7, align 2, !tbaa !9
  %9 = zext i16 %8 to i32
  %10 = getelementptr inbounds nuw i8, ptr %2, i64 4
  %11 = load i16, ptr %10, align 2, !tbaa !9
  %12 = zext i16 %11 to i32
  %13 = getelementptr inbounds nuw i8, ptr %2, i64 6
  %14 = load i16, ptr %13, align 2, !tbaa !9
  %15 = zext i16 %14 to i32
  %16 = lshr i64 %1, 1
  %17 = add nuw nsw i32 %9, 1
  %18 = add nuw nsw i32 %17, %6
  %19 = lshr i32 %18, 1
  %20 = trunc nuw i32 %19 to i16
  store i16 %20, ptr %0, align 2, !tbaa !9
  %21 = shl nuw nsw i32 %9, 1
  %22 = add nuw nsw i32 %12, 2
  %23 = add nuw nsw i32 %22, %6
  %24 = add nuw nsw i32 %23, %21
  %25 = lshr i32 %24, 2
  %26 = trunc nuw i32 %25 to i16
  %27 = getelementptr inbounds nuw i8, ptr %0, i64 2
  store i16 %26, ptr %27, align 2, !tbaa !9
  %28 = add nuw nsw i32 %17, %12
  %29 = lshr i32 %28, 1
  %30 = trunc nuw i32 %29 to i16
  %31 = getelementptr inbounds nuw i8, ptr %0, i64 4
  store i16 %30, ptr %31, align 2, !tbaa !9
  %32 = getelementptr inbounds nuw i16, ptr %0, i64 %16
  store i16 %30, ptr %32, align 2, !tbaa !9
  %33 = shl nuw nsw i32 %12, 1
  %34 = add nuw nsw i32 %9, 2
  %35 = add nuw nsw i32 %34, %33
  %36 = add nuw nsw i32 %35, %15
  %37 = lshr i32 %36, 2
  %38 = trunc nuw i32 %37 to i16
  %39 = getelementptr inbounds nuw i8, ptr %0, i64 6
  store i16 %38, ptr %39, align 2, !tbaa !9
  %40 = getelementptr inbounds nuw i8, ptr %32, i64 2
  store i16 %38, ptr %40, align 2, !tbaa !9
  %41 = add nuw nsw i32 %12, 1
  %42 = add nuw nsw i32 %41, %15
  %43 = lshr i32 %42, 1
  %44 = trunc nuw i32 %43 to i16
  %45 = getelementptr inbounds nuw i8, ptr %32, i64 4
  store i16 %44, ptr %45, align 2, !tbaa !9
  %46 = and i64 %1, -2
  %47 = getelementptr inbounds nuw i16, ptr %0, i64 %46
  store i16 %44, ptr %47, align 2, !tbaa !9
  %48 = mul nuw nsw i32 %15, 3
  %49 = add nuw nsw i32 %22, %48
  %50 = lshr i32 %49, 2
  %51 = trunc nuw i32 %50 to i16
  %52 = getelementptr inbounds nuw i8, ptr %32, i64 6
  store i16 %51, ptr %52, align 2, !tbaa !9
  %53 = or i64 %1, 1
  %54 = getelementptr inbounds nuw i16, ptr %0, i64 %53
  store i16 %51, ptr %54, align 2, !tbaa !9
  %.idx = mul nuw nsw i64 %16, 6
  %55 = getelementptr inbounds nuw i8, ptr %0, i64 %.idx
  %56 = getelementptr inbounds nuw i8, ptr %55, i64 6
  store i16 %14, ptr %56, align 2, !tbaa !9
  %57 = getelementptr inbounds nuw i8, ptr %47, i64 6
  store i16 %14, ptr %57, align 2, !tbaa !9
  %58 = getelementptr inbounds nuw i8, ptr %55, i64 4
  store i16 %14, ptr %58, align 2, !tbaa !9
  %59 = getelementptr inbounds nuw i8, ptr %47, i64 4
  store i16 %14, ptr %59, align 2, !tbaa !9
  %60 = getelementptr inbounds nuw i8, ptr %55, i64 2
  store i16 %14, ptr %60, align 2, !tbaa !9
  store i16 %14, ptr %55, align 2, !tbaa !9
  ret void
}